; Function Attrs: uwtable
define void @_ZN7rocksdb23BlockBasedTableIterator30CheckDataBlockWithinUpperBoundEv(ptr nocapture noundef nonnull align 8 dereferenceable(784) %this) local_unnamed_addr #0 align 2 {
entry:
  %ref.tmp = alloca %"class.rocksdb::Slice", align 8
  %is_index_at_curr_block_.i = getelementptr inbounds i8, ptr %this, i64 776
  %0 = load i8, ptr %is_index_at_curr_block_.i, align 8
  %1 = and i8 %0, 1
  %tobool.i.not = icmp eq i8 %1, 0
  br i1 %tobool.i.not, label %if.end, label %land.lhs.true

land.lhs.true:                                    ; preds = %entry
  %read_options_ = getelementptr inbounds i8, ptr %this, i64 56
  %2 = load ptr, ptr %read_options_, align 8
  %iterate_upper_bound = getelementptr inbounds i8, ptr %2, i64 104
  %3 = load ptr, ptr %iterate_upper_bound, align 8
  %cmp.not = icmp eq ptr %3, null
  br i1 %cmp.not, label %if.end, label %land.lhs.true2

land.lhs.true2:                                   ; preds = %land.lhs.true
  %block_iter_points_to_real_block_ = getelementptr inbounds i8, ptr %this, i64 681
  %4 = load i8, ptr %block_iter_points_to_real_block_, align 1
  %5 = and i8 %4, 1
  %tobool.not = icmp eq i8 %5, 0
  br i1 %tobool.not, label %if.end, label %if.then

if.then:                                          ; preds = %land.lhs.true2
  %user_comparator_ = getelementptr inbounds i8, ptr %this, i64 72
  %index_iter_ = getelementptr inbounds i8, ptr %this, i64 40
  %6 = load ptr, ptr %index_iter_, align 8
  %vtable = load ptr, ptr %6, align 8
  %vfn = getelementptr inbounds i8, ptr %vtable, i64 96
  %7 = load ptr, ptr %vfn, align 8
  %call6 = tail call { ptr, i64 } %7(ptr noundef nonnull align 8 dereferenceable(40) %6)
  %8 = extractvalue { ptr, i64 } %call6, 0
  store ptr %8, ptr %ref.tmp, align 8
  %9 = getelementptr inbounds i8, ptr %ref.tmp, i64 8
  %10 = extractvalue { ptr, i64 } %call6, 1
  store i64 %10, ptr %9, align 8
  br i1 icmp ne (ptr @_ZTHN7rocksdb10perf_levelE, ptr null), label %11, label %_ZTWN7rocksdb10perf_levelE.exit.i

11:                                               ; preds = %if.then
  tail call void @_ZTHN7rocksdb10perf_levelE()
  br label %_ZTWN7rocksdb10perf_levelE.exit.i

_ZTWN7rocksdb10perf_levelE.exit.i:                ; preds = %11, %if.then
  %12 = tail call noundef align 1 ptr @llvm.threadlocal.address.p0(ptr align 1 @_ZN7rocksdb10perf_levelE)
  %13 = load i8, ptr %12, align 1
  %cmp.i = icmp ugt i8 %13, 1
  br i1 %cmp.i, label %if.then.i, label %_ZNK7rocksdb21UserComparatorWrapper23CompareWithoutTimestampERKNS_5SliceEbS3_b.exit

if.then.i:                                        ; preds = %_ZTWN7rocksdb10perf_levelE.exit.i
  br i1 icmp ne (ptr @_ZTHN7rocksdb12perf_contextE, ptr null), label %14, label %_ZTWN7rocksdb12perf_contextE.exit.i

14:                                               ; preds = %if.then.i
  tail call void @_ZTHN7rocksdb12perf_contextE()
  br label %_ZTWN7rocksdb12perf_contextE.exit.i

_ZTWN7rocksdb12perf_contextE.exit.i:              ; preds = %14, %if.then.i
  %15 = tail call noundef align 8 ptr @llvm.threadlocal.address.p0(ptr align 8 @_ZN7rocksdb12perf_contextE)
  %16 = load i64, ptr %15, align 8
  %add.i = add i64 %16, 1
  store i64 %add.i, ptr %15, align 8
  br label %_ZNK7rocksdb21UserComparatorWrapper23CompareWithoutTimestampERKNS_5SliceEbS3_b.exit

_ZNK7rocksdb21UserComparatorWrapper23CompareWithoutTimestampERKNS_5SliceEbS3_b.exit: ; preds = %_ZTWN7rocksdb10perf_levelE.exit.i, %_ZTWN7rocksdb12perf_contextE.exit.i
  %17 = load ptr, ptr %user_comparator_, align 8
  %vtable.i = load ptr, ptr %17, align 8
  %vfn.i = getelementptr inbounds i8, ptr %vtable.i, i64 208
  %18 = load ptr, ptr %vfn.i, align 8
  %call.i = call noundef i32 %18(ptr noundef nonnull align 8 dereferenceable(48) %17, ptr noundef nonnull align 8 dereferenceable(16) %3, i1 noundef zeroext false, ptr noundef nonnull align 8 dereferenceable(16) %ref.tmp, i1 noundef zeroext true)
  %cmp8 = icmp sgt i32 %call.i, 0
  %cond = zext i1 %cmp8 to i8
  %block_upper_bound_check_ = getelementptr inbounds i8, ptr %this, i64 683
  store i8 %cond, ptr %block_upper_bound_check_, align 1
  br label %if.end

if.end:                                           ; preds = %_ZNK7rocksdb21UserComparatorWrapper23CompareWithoutTimestampERKNS_5SliceEbS3_b.exit, %land.lhs.true2, %land.lhs.true, %entry
  ret void
}